; Function Attrs: mustprogress uwtable
define void @_ZNK5Ipopt13ZeroSymMatrix19TransMultVectorImplEdRKNS_6VectorEdRS1_(ptr nocapture nonnull readnone align 8 %0, double %1, ptr nocapture nonnull readnone align 8 %2, double noundef %3, ptr noundef nonnull align 8 dereferenceable(205) %4) unnamed_addr #0 align 2 {
  %6 = fcmp une double %3, 0.000000e+00
  br i1 %6, label %7, label %8

7:                                                ; preds = %5
  tail call void @_ZN5Ipopt6Vector4ScalEd(ptr noundef nonnull align 8 dereferenceable(205) %4, double noundef %3)
  br label %12

8:                                                ; preds = %5
  %9 = load ptr, ptr %4, align 8
  %10 = getelementptr inbounds i8, ptr %9, i64 72
  %11 = load ptr, ptr %10, align 8
  tail call void %11(ptr noundef nonnull align 8 dereferenceable(205) %4, double noundef 0.000000e+00)
  tail call void @_ZN5Ipopt12TaggedObject13ObjectChangedEv(ptr noundef nonnull align 8 dereferenceable(56) %4)
  br label %12

12:                                               ; preds = %8, %7
  ret void
}